-----BEGIN RSA PRIVATE KEY-----
MIICWwIBAAKBgQC2Q5y94tbCbGpt33kBwVN7RtepuICDgnekifyHfOl4VfjdouSp
6KTh81u3knkZKEPhXadPH1XXQ2csoBdyJhX/HpnYD2eTdSYyIZdgmBHxBUXEn4RA
TLJQdms4bV+IcNm6/ZuWOdm2is7H7Cr1vHhB04ZIZeUkBppt1JX9myCtKwIDAQAB
AoGAQ7SgECWos3aEnqYKFG3VbhDl4iUokDGx8gxUI5xyOgJtvR9apAdI4Kp/IpUl
qQO9G4Wntguk3p8qP3iE3SFqv8bGZ4FEcklqMTARDPvLhT6N+Ti87tNNvUEFyXNu
n0YAnSELohEboUKufqJXlLugy17D2UA3JBqslh6Od1tksAECQQDktrjHRib8DbOe
p/RYfEcGQDdGIccm3ASnIvcKpQwlLB8VCIeBm47zFFJmHcLPG2xvzFdniPLipeey
BxRb3DgBAkEAzAI+whRTeqhO9Sb0Z59Tz2/NnMmVFcNyTIgx+mdCJhjQL0XPNXGP
o+3Nj6kUe4w6Gee5yVjrE9vzjs8pagtFKwJAU2kkGGDIRPJGSJ1eKosgZ/Ixdl1J
QS3KcJ361KH+vOvLZiNXL/hoeNQ3fNBrxJZuxJMUaUjzs57n0fBtB1dYAQJAFaJv
UVmieLF8nhbheFO3KZprraLbApHVfzQ6SJnGtA+RlFHM5ZgDaZkAYanGmEuIpdKj
Ky0Y0ORUceKaO7qyPQJARHezU57jaPKdpjFBslxjlDLksLsMjzhNAN8E5OP+8AuJ
9XN0TMzlIHf/Kk1cvQ8GHc2Mxx0BH2+L1ZVVYg9qmA==
-----END RSA PRIVATE KEY-----
Certificate:
    Data:
        Version: 3 (0x2)
        Serial Number: 5 (0x5)
        Signature Algorithm: md5WithRSAEncryption
        Issuer: C=US, ST=California, L=City of Industry, O=Grandstream Networks, OU=Software Engineering, CN=VPN/emailAddress=xxu@grandstream.com
        Validity
            Not Before: Jan 15 21:42:21 2008 GMT
            Not After : Jan 12 21:42:21 2018 GMT
        Subject: C=US, ST=Massachusetts, L=Brookline, O=Grandstream Networks, OU=Software Engineering, CN=GXE50XX/emailAddress=support@grandstream.com
        Subject Public Key Info:
            Public Key Algorithm: rsaEncryption
            RSA Public Key: (1024 bit)
                Modulus (1024 bit):
                    00:b6:43:9c:bd:e2:d6:c2:6c:6a:6d:df:79:01:c1:
                    53:7b:46:d7:a9:b8:80:83:82:77:a4:89:fc:87:7c:
                    e9:78:55:f8:dd:a2:e4:a9:e8:a4:e1:f3:5b:b7:92:
                    79:19:28:43:e1:5d:a7:4f:1f:55:d7:43:67:2c:a0:
                    17:72:26:15:ff:1e:99:d8:0f:67:93:75:26:32:21:
                    97:60:98:11:f1:05:45:c4:9f:84:40:4c:b2:50:76:
                    6b:38:6d:5f:88:70:d9:ba:fd:9b:96:39:d9:b6:8a:
                    ce:c7:ec:2a:f5:bc:78:41:d3:86:48:65:e5:24:06:
                    9a:6d:d4:95:fd:9b:20:ad:2b
                Exponent: 65537 (0x10001)
        X509v3 extensions:
            X509v3 Basic Constraints: 
            CA:FALSE
            Netscape Comment: 
            OpenSSL Generated Certificate
            X509v3 Subject Key Identifier: 
            1F:4C:DA:88:B2:E0:D4:A9:FF:B7:B7:30:FE:F6:F1:DF:31:F4:7A:3D
            X509v3 Authority Key Identifier: 
            keyid:16:D7:75:49:16:8C:93:1C:EC:4E:A9:F4:4F:43:1C:7B:00:B1:ED:95
            DirName:/C=US/ST=California/L=City of Industry/O=Grandstream Networks/OU=Software Engineering/CN=VPN/emailAddress=xxu@grandstream.com
            serial:00

    Signature Algorithm: md5WithRSAEncryption
        98:1a:0a:50:b8:50:2c:12:d6:a8:ed:63:3c:1d:f4:8e:4a:13:
        df:60:f2:ee:bb:ba:31:44:aa:ca:94:d3:98:17:64:a3:0e:58:
        d0:fd:9b:6a:c2:38:45:e7:6f:14:e7:5a:b9:16:d7:e3:d6:42:
        40:cb:4f:2a:c6:94:d8:fc:c9:3f:0d:d8:2d:fd:8e:f2:43:59:
        6e:95:b7:a1:e2:1f:45:51:32:06:ed:2a:3d:c6:4c:3b:9d:59:
        75:c0:8a:fc:2b:cb:d1:f9:86:8f:16:13:e9:5e:bd:68:ea:6f:
        f4:14:15:fd:e5:71:dc:e9:ee:6c:1d:09:83:a1:6f:08:3e:59:
        f1:0b
-----BEGIN CERTIFICATE-----
MIIEETCCA3qgAwIBAgIBBTANBgkqhkiG9w0BAQQFADCBrTELMAkGA1UEBhMCVVMx
EzARBgNVBAgTCkNhbGlmb3JuaWExGTAXBgNVBAcTEENpdHkgb2YgSW5kdXN0cnkx
HTAbBgNVBAoTFEdyYW5kc3RyZWFtIE5ldHdvcmtzMR0wGwYDVQQLExRTb2Z0d2Fy
ZSBFbmdpbmVlcmluZzEMMAoGA1UEAxMDVlBOMSIwIAYJKoZIhvcNAQkBFhN4eHVA
Z3JhbmRzdHJlYW0uY29tMB4XDTA4MDExNTIxNDIyMVoXDTE4MDExMjIxNDIyMVow
gbExCzAJBgNVBAYTAlVTMRYwFAYDVQQIEw1NYXNzYWNodXNldHRzMRIwEAYDVQQH
EwlCcm9va2xpbmUxHTAbBgNVBAoTFEdyYW5kc3RyZWFtIE5ldHdvcmtzMR0wGwYD
VQQLExRTb2Z0d2FyZSBFbmdpbmVlcmluZzEQMA4GA1UEAxMHR1hFNTBYWDEmMCQG
CSqGSIb3DQEJARYXc3VwcG9ydEBncmFuZHN0cmVhbS5jb20wgZ8wDQYJKoZIhvcN
AQEBBQADgY0AMIGJAoGBALZDnL3i1sJsam3feQHBU3tG16m4gIOCd6SJ/Id86XhV
+N2i5KnopOHzW7eSeRkoQ+Fdp08fVddDZyygF3ImFf8emdgPZ5N1JjIhl2CYEfEF
RcSfhEBMslB2azhtX4hw2br9m5Y52baKzsfsKvW8eEHThkhl5SQGmm3Ulf2bIK0r
AgMBAAGjggE5MIIBNTAJBgNVHRMEAjAAMCwGCWCGSAGG+EIBDQQfFh1PcGVuU1NM
IEdlbmVyYXRlZCBDZXJ0aWZpY2F0ZTAdBgNVHQ4EFgQUH0zaiLLg1Kn/t7cw/vbx
3zH0ej0wgdoGA1UdIwSB0jCBz4AUFtd1SRaMkxzsTqn0T0McewCx7ZWhgbOkgbAw
ga0xCzAJBgNVBAYTAlVTMRMwEQYDVQQIEwpDYWxpZm9ybmlhMRkwFwYDVQQHExBD
aXR5IG9mIEluZHVzdHJ5MR0wGwYDVQQKExRHcmFuZHN0cmVhbSBOZXR3b3JrczEd
MBsGA1UECxMUU29mdHdhcmUgRW5naW5lZXJpbmcxDDAKBgNVBAMTA1ZQTjEiMCAG
CSqGSIb3DQEJARYTeHh1QGdyYW5kc3RyZWFtLmNvbYIBADANBgkqhkiG9w0BAQQF
AAOBgQCYGgpQuFAsEtao7WM8HfSOShPfYPLuu7oxRKrKlNOYF2SjDljQ/ZtqwjhF
528U51q5Ftfj1kJAy08qxpTY/Mk/Ddgt/Y7yQ1lulbeh4h9FUTIG7So9xkw7nVl1
wIr8K8vR+YaPFhPpXr1o6m/0FBX95XHc6e5sHQmDoW8IPlnxCw==
-----END CERTIFICATE-----
